ARM GAS  C:\Users\Jeff\AppData\Local\Temp\cc0kIRCe.s 			page 1


   1              		.syntax unified
   2              		.cpu cortex-m3
   3              		.fpu softvfp
   4              		.eabi_attribute 20, 1
   5              		.eabi_attribute 21, 1
   6              		.eabi_attribute 23, 3
   7              		.eabi_attribute 24, 1
   8              		.eabi_attribute 25, 1
   9              		.eabi_attribute 26, 1
  10              		.eabi_attribute 30, 2
  11              		.eabi_attribute 34, 1
  12              		.eabi_attribute 18, 4
  13              		.thumb
  14              		.file	"main.c"
  15              		.text
  16              	.Ltext0:
  17              		.cfi_sections	.debug_frame
  18              		.section	.text.cmd_apollo,"ax",%progbits
  19              		.align	2
  20              		.p2align 4,,15
  21              		.thumb
  22              		.thumb_func
  23              		.type	cmd_apollo, %function
  24              	cmd_apollo:
  25              	.LFB64:
  26              		.file 1 "main.c"
  27              		.loc 1 60 0
  28              		.cfi_startproc
  29              		@ args = 0, pretend = 0, frame = 0
  30              		@ frame_needed = 0, uses_anonymous_args = 0
  31              	.LVL0:
  32 0000 10B5     		push	{r4, lr}
  33              	.LCFI0:
  34              		.cfi_def_cfa_offset 8
  35              		.cfi_offset 4, -8
  36              		.cfi_offset 14, -4
  37              		.loc 1 60 0
  38 0002 0446     		mov	r4, r0
  39              		.loc 1 64 0
  40 0004 FFF7FEFF 		bl	apolloInit
  41              	.LVL1:
  42              		.loc 1 67 0
  43 0008 6369     		ldr	r3, [r4, #20]
  44 000a 23B9     		cbnz	r3, .L3
  45              	.L8:
  46              		.loc 1 69 0
  47 000c FFF7FEFF 		bl	apolloUpdate
  48              	.LVL2:
  49              		.loc 1 67 0
  50 0010 6369     		ldr	r3, [r4, #20]
  51 0012 002B     		cmp	r3, #0
  52 0014 FAD0     		beq	.L8
  53              	.L3:
  54              		.loc 1 73 0
  55 0016 BDE81040 		pop	{r4, lr}
  56              		.loc 1 72 0
  57 001a FFF7FEBF 		b	apolloDeinit
ARM GAS  C:\Users\Jeff\AppData\Local\Temp\cc0kIRCe.s 			page 2


  58              	.LVL3:
  59              		.cfi_endproc
  60              	.LFE64:
  61              		.size	cmd_apollo, .-cmd_apollo
  62 001e 00BF     		.section	.text.cmd_sm,"ax",%progbits
  63              		.align	2
  64              		.p2align 4,,15
  65              		.thumb
  66              		.thumb_func
  67              		.type	cmd_sm, %function
  68              	cmd_sm:
  69              	.LFB65:
  70              		.loc 1 78 0
  71              		.cfi_startproc
  72              		@ args = 0, pretend = 0, frame = 0
  73              		@ frame_needed = 0, uses_anonymous_args = 0
  74              		@ link register save eliminated.
  75              	.LVL4:
  76              		.loc 1 84 0
  77              		.loc 1 83 0
  78 0000 FFF7FEBF 		b	SmartMotorDebugStatus
  79              	.LVL5:
  80              		.cfi_endproc
  81              	.LFE65:
  82              		.size	cmd_sm, .-cmd_sm
  83 0004 AFF30080 		.section	.text.startup.main,"ax",%progbits
  83      AFF30080 
  83      AFF30080 
  84              		.align	2
  85              		.p2align 4,,15
  86              		.global	main
  87              		.thumb
  88              		.thumb_func
  89              		.type	main, %function
  90              	main:
  91              	.LFB66:
  92              		.loc 1 114 0
  93              		.cfi_startproc
  94              		@ args = 0, pretend = 0, frame = 0
  95              		@ frame_needed = 0, uses_anonymous_args = 0
  96              	.LVL6:
  97 0000 10B5     		push	{r4, lr}
  98              	.LCFI1:
  99              		.cfi_def_cfa_offset 8
 100              		.cfi_offset 4, -8
 101              		.cfi_offset 14, -4
 102              		.loc 1 123 0
 103 0002 FFF7FEFF 		bl	halInit
 104              	.LVL7:
 105              		.loc 1 133 0
 106 0006 3324     		movs	r4, #51
 107              		.loc 1 124 0
 108 0008 FFF7FEFF 		bl	chSysInit
 109              	.LVL8:
 110              		.loc 1 127 0
 111 000c FFF7FEFF 		bl	vexConsoleInit
 112              	.LVL9:
ARM GAS  C:\Users\Jeff\AppData\Local\Temp\cc0kIRCe.s 			page 3


 113              		.loc 1 130 0
 114 0010 FFF7FEFF 		bl	vexCortexInit
 115              	.LVL10:
 116              		.loc 1 133 0
 117 0014 05E0     		b	.L15
 118              	.LVL11:
 119              	.L17:
 120 0016 013C     		subs	r4, r4, #1
 121              		.loc 1 136 0
 122 0018 6420     		movs	r0, #100
 123 001a A4B2     		uxth	r4, r4
 124 001c FFF7FEFF 		bl	chThdSleep
 125              	.LVL12:
 126              		.loc 1 138 0
 127 0020 1CB1     		cbz	r4, .L18
 128              	.L15:
 129              		.loc 1 133 0 discriminator 1
 130 0022 FFF7FEFF 		bl	vexSpiGetOnlineStatus
 131              	.LVL13:
 132 0026 0028     		cmp	r0, #0
 133 0028 F5D0     		beq	.L17
 134              	.L18:
 135              		.loc 1 115 0
 136 002a 0024     		movs	r4, #0
 137              		.loc 1 143 0
 138 002c FFF7FEFF 		bl	shellInit
 139              	.LVL14:
 140              		.loc 1 148 0
 141 0030 3CB1     		cbz	r4, .L22
 142              	.L19:
 143              		.loc 1 151 0
 144 0032 237F     		ldrb	r3, [r4, #28]	@ zero_extendqisi2
 145 0034 0E2B     		cmp	r3, #14
 146 0036 0CD0     		beq	.L23
 147              	.LVL15:
 148              	.L20:
 149              		.loc 1 157 0
 150 0038 3220     		movs	r0, #50
 151 003a FFF7FEFF 		bl	chThdSleep
 152              	.LVL16:
 153              		.loc 1 148 0
 154 003e 002C     		cmp	r4, #0
 155 0040 F7D1     		bne	.L19
 156              	.L22:
 157              		.loc 1 149 0
 158 0042 0648     		ldr	r0, .L24
 159 0044 4FF40B61 		mov	r1, #2224
 160 0048 4022     		movs	r2, #64
 161 004a FFF7FEFF 		bl	shellCreate
 162              	.LVL17:
 163 004e 0446     		mov	r4, r0
 164              	.LVL18:
 165 0050 F2E7     		b	.L20
 166              	.LVL19:
 167              	.L23:
 168              		.loc 1 153 0
 169 0052 2046     		mov	r0, r4
ARM GAS  C:\Users\Jeff\AppData\Local\Temp\cc0kIRCe.s 			page 4


 170 0054 FFF7FEFF 		bl	chThdRelease
 171              	.LVL20:
 172              		.loc 1 154 0
 173 0058 0024     		movs	r4, #0
 174 005a EDE7     		b	.L20
 175              	.L25:
 176              		.align	2
 177              	.L24:
 178 005c 00000000 		.word	.LANCHOR0
 179              		.cfi_endproc
 180              	.LFE66:
 181              		.size	main, .-main
 182              		.section	.rodata.commands,"a",%progbits
 183              		.align	2
 184              		.type	commands, %object
 185              		.size	commands, 88
 186              	commands:
 187 0000 00000000 		.word	.LC0
 188 0004 00000000 		.word	vexAdcDebug
 189 0008 04000000 		.word	.LC1
 190 000c 00000000 		.word	vexSpiDebug
 191 0010 08000000 		.word	.LC2
 192 0014 00000000 		.word	vexMotorDebug
 193 0018 10000000 		.word	.LC3
 194 001c 00000000 		.word	vexLcdDebug
 195 0020 14000000 		.word	.LC4
 196 0024 00000000 		.word	vexEncoderDebug
 197 0028 18000000 		.word	.LC5
 198 002c 00000000 		.word	vexSonarDebug
 199 0030 1C000000 		.word	.LC6
 200 0034 00000000 		.word	vexIMEDebug
 201 0038 20000000 		.word	.LC7
 202 003c 00000000 		.word	vexTestDebug
 203 0040 28000000 		.word	.LC8
 204 0044 00000000 		.word	cmd_sm
 205 0048 2C000000 		.word	.LC9
 206 004c 00000000 		.word	cmd_apollo
 207 0050 00000000 		.word	0
 208 0054 00000000 		.word	0
 209              		.section	.rodata.shell_cfg1,"a",%progbits
 210              		.align	2
 211              		.set	.LANCHOR0,. + 0
 212              		.type	shell_cfg1, %object
 213              		.size	shell_cfg1, 8
 214              	shell_cfg1:
 215 0000 00000000 		.word	SD1
 216 0004 00000000 		.word	commands
 217              		.section	.rodata.str1.4,"aMS",%progbits,1
 218              		.align	2
 219              	.LC0:
 220 0000 61646300 		.ascii	"adc\000"
 221              	.LC1:
 222 0004 73706900 		.ascii	"spi\000"
 223              	.LC2:
 224 0008 6D6F746F 		.ascii	"motor\000"
 224      7200
 225 000e 0000     		.space	2
ARM GAS  C:\Users\Jeff\AppData\Local\Temp\cc0kIRCe.s 			page 5


 226              	.LC3:
 227 0010 6C636400 		.ascii	"lcd\000"
 228              	.LC4:
 229 0014 656E6300 		.ascii	"enc\000"
 230              	.LC5:
 231 0018 736F6E00 		.ascii	"son\000"
 232              	.LC6:
 233 001c 696D6500 		.ascii	"ime\000"
 234              	.LC7:
 235 0020 74657374 		.ascii	"test\000"
 235      00
 236 0025 000000   		.space	3
 237              	.LC8:
 238 0028 736D00   		.ascii	"sm\000"
 239 002b 00       		.space	1
 240              	.LC9:
 241 002c 61706F6C 		.ascii	"apollo\000"
 241      6C6F00
 242 0033 00       		.text
 243              	.Letext0:
 244              		.file 2 "c:\\yagarto-20121222\\bin\\../lib/gcc/arm-none-eabi/4.7.2/include/stddef.h"
 245              		.file 3 "c:/yagarto-20121222/lib/gcc/../../arm-none-eabi/sys-include/stdint.h"
 246              		.file 4 "../../../../ChibiOS_2.6.2/os/ports/GCC/ARMCMx/chtypes.h"
 247              		.file 5 "../../../../ChibiOS_2.6.2/os/kernel/include/chlists.h"
 248              		.file 6 "../../../../ChibiOS_2.6.2/os/kernel/include/chthreads.h"
 249              		.file 7 "../../../../ChibiOS_2.6.2/os/ports/GCC/ARMCMx/chcore_v7m.h"
 250              		.file 8 "../../../../ChibiOS_2.6.2/os/kernel/include/chmtx.h"
 251              		.file 9 "../../../../ChibiOS_2.6.2/os/kernel/include/chevents.h"
 252              		.file 10 "../../../../ChibiOS_2.6.2/os/kernel/include/chqueues.h"
 253              		.file 11 "../../../../ChibiOS_2.6.2/os/kernel/include/chstreams.h"
 254              		.file 12 "../../../../ChibiOS_2.6.2/os/hal/platforms/STM32F1xx/stm32f10x.h"
 255              		.file 13 "../../../../ChibiOS_2.6.2/os/hal/include/serial.h"
 256              		.file 14 "../../fw/vexcompat.h"
 257              		.file 15 "../../fw/vexdigital.h"
 258              		.file 16 "../../fw/vexime.h"
 259              		.file 17 "../../fw/vexshell.h"
 260              		.file 18 "../../opt/apollo.h"
 261              		.file 19 "../../opt/smartmotor.h"
 262              		.file 20 "../../../../ChibiOS_2.6.2/os/hal/include/hal.h"
 263              		.file 21 "../../../../ChibiOS_2.6.2/os/kernel/include/chsys.h"
 264              		.file 22 "../../fw/vex.h"
 265              		.file 23 "../../../../ChibiOS_2.6.2/os/ports/common/ARMCMx/CMSIS/include/core_cm3.h"
 266              		.file 24 "../../../../ChibiOS_2.6.2/os/hal/platforms/STM32/USARTv1/serial_lld.h"
 267              		.file 25 "../../fw/vexspi.h"
 268              		.file 26 "../../../../ChibiOS_2.6.2/os/kernel/include/chdynamic.h"