ARM GAS  C:\Users\Jeff\AppData\Local\Temp\ccSKufFw.s 			page 1


   1              		.syntax unified
   2              		.cpu cortex-m3
   3              		.fpu softvfp
   4              		.eabi_attribute 20, 1
   5              		.eabi_attribute 21, 1
   6              		.eabi_attribute 23, 3
   7              		.eabi_attribute 24, 1
   8              		.eabi_attribute 25, 1
   9              		.eabi_attribute 26, 1
  10              		.eabi_attribute 30, 2
  11              		.eabi_attribute 34, 1
  12              		.eabi_attribute 18, 4
  13              		.thumb
  14              		.file	"vexdefault.c"
  15              		.text
  16              	.Ltext0:
  17              		.cfi_sections	.debug_frame
  18              		.section	.text.vexCortexDefaultSetup,"ax",%progbits
  19              		.align	2
  20              		.p2align 4,,15
  21              		.global	vexCortexDefaultSetup
  22              		.thumb
  23              		.thumb_func
  24              		.type	vexCortexDefaultSetup, %function
  25              	vexCortexDefaultSetup:
  26              	.LFB63:
  27              		.file 1 "vexdefault.c"
  28              		.loc 1 150 0
  29              		.cfi_startproc
  30              		@ args = 0, pretend = 0, frame = 0
  31              		@ frame_needed = 0, uses_anonymous_args = 0
  32              		.loc 1 151 0
  33 0000 40F20000 		movw	r0, #:lower16:.LANCHOR0
  34 0004 0C21     		movs	r1, #12
  35              		.loc 1 150 0
  36 0006 08B5     		push	{r3, lr}
  37              	.LCFI0:
  38              		.cfi_def_cfa_offset 8
  39              		.cfi_offset 3, -8
  40              		.cfi_offset 14, -4
  41              		.loc 1 151 0
  42 0008 C0F20000 		movt	r0, #:upper16:.LANCHOR0
  43 000c FFF7FEFF 		bl	vexDigitalConfigure
  44              	.LVL0:
  45              		.loc 1 152 0
  46 0010 40F20000 		movw	r0, #:lower16:.LANCHOR1
  47 0014 C0F20000 		movt	r0, #:upper16:.LANCHOR1
  48 0018 0A21     		movs	r1, #10
  49              		.loc 1 153 0
  50 001a BDE80840 		pop	{r3, lr}
  51              		.loc 1 152 0
  52 001e FFF7FEBF 		b	vexMotorConfigure
  53              	.LVL1:
  54              		.cfi_endproc
  55              	.LFE63:
  56              		.size	vexCortexDefaultSetup, .-vexCortexDefaultSetup
  57 0022 00BFAFF3 		.section	.text.vexCortexDefaultDriver,"ax",%progbits
ARM GAS  C:\Users\Jeff\AppData\Local\Temp\ccSKufFw.s 			page 2


  57      0080AFF3 
  57      0080AFF3 
  57      0080
  58              		.align	2
  59              		.p2align 4,,15
  60              		.global	vexCortexDefaultDriver
  61              		.thumb
  62              		.thumb_func
  63              		.type	vexCortexDefaultDriver, %function
  64              	vexCortexDefaultDriver:
  65              	.LFB64:
  66              		.loc 1 164 0
  67              		.cfi_startproc
  68              		@ args = 0, pretend = 0, frame = 32
  69              		@ frame_needed = 0, uses_anonymous_args = 0
  70              	.LVL2:
  71 0000 2DE9F04F 		push	{r4, r5, r6, r7, r8, r9, sl, fp, lr}
  72              	.LCFI1:
  73              		.cfi_def_cfa_offset 36
  74              		.cfi_offset 4, -36
  75              		.cfi_offset 5, -32
  76              		.cfi_offset 6, -28
  77              		.cfi_offset 7, -24
  78              		.cfi_offset 8, -20
  79              		.cfi_offset 9, -16
  80              		.cfi_offset 10, -12
  81              		.cfi_offset 11, -8
  82              		.cfi_offset 14, -4
  83              		.loc 1 181 0
  84 0004 40F20000 		movw	r0, #:lower16:rlist
  85 0008 C0F20000 		movt	r0, #:upper16:rlist
  86 000c 8369     		ldr	r3, [r0, #24]
  87              		.loc 1 164 0
  88 000e 89B0     		sub	sp, sp, #36
  89              	.LCFI2:
  90              		.cfi_def_cfa_offset 72
  91              		.loc 1 181 0
  92 0010 5B7F     		ldrb	r3, [r3, #29]	@ zero_extendqisi2
  93 0012 03F00403 		and	r3, r3, #4
  94 0016 DBB2     		uxtb	r3, r3
  95 0018 002B     		cmp	r3, #0
  96 001a 40F01082 		bne	.L2
  97 001e 1D46     		mov	r5, r3
  98 0020 9A46     		mov	sl, r3
  99 0022 9946     		mov	r9, r3
 100 0024 1E46     		mov	r6, r3
 101 0026 0793     		str	r3, [sp, #28]
 102 0028 0693     		str	r3, [sp, #24]
 103 002a 6DE0     		b	.L3
 104              	.LVL3:
 105              	.L40:
 106              		.loc 1 264 0 discriminator 1
 107 002c 0298     		ldr	r0, [sp, #8]
 108 002e C728     		cmp	r0, #199
 109 0030 CCBF     		ite	gt
 110 0032 0022     		movgt	r2, #0
 111 0034 0122     		movle	r2, #1
ARM GAS  C:\Users\Jeff\AppData\Local\Temp\ccSKufFw.s 			page 3


 112 0036 12EAD632 		ands	r2, r2, r6, lsr #15
 113              		.loc 1 265 0 discriminator 1
 114 003a 1CBF     		itt	ne
 115 003c 1E46     		movne	r6, r3
 116              	.LVL4:
 117 003e 3146     		movne	r1, r6
 118              	.L8:
 119              	.LVL5:
 120              		.loc 1 267 0
 121 0040 0FFA89FB 		sxth	fp, r9
 122              	.LVL6:
 123 0044 BBF1000F 		cmp	fp, #0
 124 0048 D4BF     		ite	le
 125 004a 0023     		movle	r3, #0
 126 004c 0123     		movgt	r3, #1
 127 004e B8F1C70F 		cmp	r8, #199
 128 0052 C8BF     		it	gt
 129 0054 0023     		movgt	r3, #0
 130 0056 002B     		cmp	r3, #0
 131 0058 40F02981 		bne	.L15
 132              		.loc 1 267 0 is_stmt 0 discriminator 1
 133 005c 0398     		ldr	r0, [sp, #12]
 134 005e C728     		cmp	r0, #199
 135 0060 CCBF     		ite	gt
 136 0062 0022     		movgt	r2, #0
 137 0064 0122     		movle	r2, #1
 138 0066 12EAD932 		ands	r2, r2, r9, lsr #15
 139              		.loc 1 268 0 is_stmt 1 discriminator 1
 140 006a 1CBF     		itt	ne
 141 006c 9946     		movne	r9, r3
 142              	.LVL7:
 143 006e CB46     		movne	fp, r9
 144              	.L9:
 145              	.LVL8:
 146              		.loc 1 270 0
 147 0070 0FFA8AF8 		sxth	r8, sl
 148              	.LVL9:
 149 0074 009A     		ldr	r2, [sp, #0]
 150 0076 B8F1000F 		cmp	r8, #0
 151 007a D4BF     		ite	le
 152 007c 0023     		movle	r3, #0
 153 007e 0123     		movgt	r3, #1
 154 0080 C72A     		cmp	r2, #199
 155 0082 C8BF     		it	gt
 156 0084 0023     		movgt	r3, #0
 157 0086 002B     		cmp	r3, #0
 158 0088 40F00D81 		bne	.L16
 159              		.loc 1 270 0 is_stmt 0 discriminator 1
 160 008c 0498     		ldr	r0, [sp, #16]
 161 008e C728     		cmp	r0, #199
 162 0090 CCBF     		ite	gt
 163 0092 0022     		movgt	r2, #0
 164 0094 0122     		movle	r2, #1
 165 0096 12EADA32 		ands	r2, r2, sl, lsr #15
 166              		.loc 1 271 0 is_stmt 1 discriminator 1
 167 009a 1CBF     		itt	ne
 168 009c 9A46     		movne	sl, r3
ARM GAS  C:\Users\Jeff\AppData\Local\Temp\ccSKufFw.s 			page 4


 169              	.LVL10:
 170 009e D046     		movne	r8, sl
 171              	.L10:
 172              	.LVL11:
 173              		.loc 1 273 0
 174 00a0 2CB2     		sxth	r4, r5
 175 00a2 019A     		ldr	r2, [sp, #4]
 176 00a4 002C     		cmp	r4, #0
 177 00a6 D4BF     		ite	le
 178 00a8 0023     		movle	r3, #0
 179 00aa 0123     		movgt	r3, #1
 180 00ac C72A     		cmp	r2, #199
 181 00ae C8BF     		it	gt
 182 00b0 0023     		movgt	r3, #0
 183 00b2 002B     		cmp	r3, #0
 184 00b4 40F0F480 		bne	.L17
 185              		.loc 1 273 0 is_stmt 0 discriminator 1
 186 00b8 0598     		ldr	r0, [sp, #20]
 187 00ba C728     		cmp	r0, #199
 188 00bc CCBF     		ite	gt
 189 00be 0022     		movgt	r2, #0
 190 00c0 0122     		movle	r2, #1
 191 00c2 12EAD532 		ands	r2, r2, r5, lsr #15
 192              		.loc 1 274 0 is_stmt 1 discriminator 1
 193 00c6 1CBF     		itt	ne
 194 00c8 1D46     		movne	r5, r3
 195              	.LVL12:
 196 00ca 2C46     		movne	r4, r5
 197              	.L11:
 198              	.LVL13:
 199              		.loc 1 277 0
 200 00cc 0520     		movs	r0, #5
 201 00ce FFF7FEFF 		bl	vexMotorSet
 202              	.LVL14:
 203              		.loc 1 278 0
 204 00d2 0620     		movs	r0, #6
 205 00d4 5946     		mov	r1, fp
 206 00d6 FFF7FEFF 		bl	vexMotorSet
 207              	.LVL15:
 208              		.loc 1 279 0
 209 00da 0720     		movs	r0, #7
 210 00dc 4146     		mov	r1, r8
 211 00de FFF7FEFF 		bl	vexMotorSet
 212              	.LVL16:
 213              		.loc 1 280 0
 214 00e2 0820     		movs	r0, #8
 215 00e4 2146     		mov	r1, r4
 216 00e6 FFF7FEFF 		bl	vexMotorSet
 217              	.LVL17:
 218              		.loc 1 283 0
 219 00ea 0A20     		movs	r0, #10
 220 00ec FFF7FEFF 		bl	vexSleep
 221              	.LVL18:
 222              		.loc 1 181 0
 223 00f0 40F20002 		movw	r2, #:lower16:rlist
 224 00f4 C0F20002 		movt	r2, #:upper16:rlist
 225 00f8 9369     		ldr	r3, [r2, #24]
ARM GAS  C:\Users\Jeff\AppData\Local\Temp\ccSKufFw.s 			page 5


 226 00fa 5B7F     		ldrb	r3, [r3, #29]	@ zero_extendqisi2
 227 00fc 03F00403 		and	r3, r3, #4
 228 0100 DBB2     		uxtb	r3, r3
 229 0102 002B     		cmp	r3, #0
 230 0104 40F09B81 		bne	.L2
 231              	.LVL19:
 232              	.L3:
 233              		.loc 1 184 0
 234 0108 0020     		movs	r0, #0
 235 010a FFF7FEFF 		bl	vexDigitalPinGet
 236              	.LVL20:
 237 010e D0F10101 		rsbs	r1, r0, #1
 238 0112 38BF     		it	cc
 239 0114 0021     		movcc	r1, #0
 240 0116 0020     		movs	r0, #0
 241 0118 FFF7FEFF 		bl	vexMotorDirectionSet
 242              	.LVL21:
 243              		.loc 1 185 0
 244 011c 0120     		movs	r0, #1
 245 011e FFF7FEFF 		bl	vexDigitalPinGet
 246              	.LVL22:
 247 0122 D0F10101 		rsbs	r1, r0, #1
 248 0126 38BF     		it	cc
 249 0128 0021     		movcc	r1, #0
 250 012a 0120     		movs	r0, #1
 251 012c FFF7FEFF 		bl	vexMotorDirectionSet
 252              	.LVL23:
 253              		.loc 1 186 0
 254 0130 0220     		movs	r0, #2
 255 0132 FFF7FEFF 		bl	vexDigitalPinGet
 256              	.LVL24:
 257 0136 D0F10101 		rsbs	r1, r0, #1
 258 013a 38BF     		it	cc
 259 013c 0021     		movcc	r1, #0
 260 013e 0220     		movs	r0, #2
 261 0140 FFF7FEFF 		bl	vexMotorDirectionSet
 262              	.LVL25:
 263              		.loc 1 187 0
 264 0144 0320     		movs	r0, #3
 265 0146 FFF7FEFF 		bl	vexDigitalPinGet
 266              	.LVL26:
 267 014a D0F10101 		rsbs	r1, r0, #1
 268 014e 38BF     		it	cc
 269 0150 0021     		movcc	r1, #0
 270 0152 0320     		movs	r0, #3
 271 0154 FFF7FEFF 		bl	vexMotorDirectionSet
 272              	.LVL27:
 273              		.loc 1 188 0
 274 0158 0420     		movs	r0, #4
 275 015a FFF7FEFF 		bl	vexDigitalPinGet
 276              	.LVL28:
 277 015e D0F10101 		rsbs	r1, r0, #1
 278 0162 38BF     		it	cc
 279 0164 0021     		movcc	r1, #0
 280 0166 0420     		movs	r0, #4
 281 0168 FFF7FEFF 		bl	vexMotorDirectionSet
 282              	.LVL29:
ARM GAS  C:\Users\Jeff\AppData\Local\Temp\ccSKufFw.s 			page 6


 283              		.loc 1 189 0
 284 016c 0520     		movs	r0, #5
 285 016e FFF7FEFF 		bl	vexDigitalPinGet
 286              	.LVL30:
 287 0172 D0F10101 		rsbs	r1, r0, #1
 288 0176 38BF     		it	cc
 289 0178 0021     		movcc	r1, #0
 290 017a 0520     		movs	r0, #5
 291 017c FFF7FEFF 		bl	vexMotorDirectionSet
 292              	.LVL31:
 293              		.loc 1 190 0
 294 0180 0620     		movs	r0, #6
 295 0182 FFF7FEFF 		bl	vexDigitalPinGet
 296              	.LVL32:
 297 0186 D0F10101 		rsbs	r1, r0, #1
 298 018a 38BF     		it	cc
 299 018c 0021     		movcc	r1, #0
 300 018e 0620     		movs	r0, #6
 301 0190 FFF7FEFF 		bl	vexMotorDirectionSet
 302              	.LVL33:
 303              		.loc 1 191 0
 304 0194 0720     		movs	r0, #7
 305 0196 FFF7FEFF 		bl	vexDigitalPinGet
 306              	.LVL34:
 307 019a D0F10101 		rsbs	r1, r0, #1
 308 019e 38BF     		it	cc
 309 01a0 0021     		movcc	r1, #0
 310 01a2 0720     		movs	r0, #7
 311 01a4 FFF7FEFF 		bl	vexMotorDirectionSet
 312              	.LVL35:
 313              		.loc 1 192 0
 314 01a8 0820     		movs	r0, #8
 315 01aa FFF7FEFF 		bl	vexDigitalPinGet
 316              	.LVL36:
 317 01ae D0F10101 		rsbs	r1, r0, #1
 318 01b2 38BF     		it	cc
 319 01b4 0021     		movcc	r1, #0
 320 01b6 0820     		movs	r0, #8
 321 01b8 FFF7FEFF 		bl	vexMotorDirectionSet
 322              	.LVL37:
 323              		.loc 1 193 0
 324 01bc 0920     		movs	r0, #9
 325 01be FFF7FEFF 		bl	vexDigitalPinGet
 326              	.LVL38:
 327 01c2 D0F10101 		rsbs	r1, r0, #1
 328 01c6 38BF     		it	cc
 329 01c8 0021     		movcc	r1, #0
 330 01ca 0920     		movs	r0, #9
 331 01cc FFF7FEFF 		bl	vexMotorDirectionSet
 332              	.LVL39:
 333              		.loc 1 196 0
 334 01d0 0020     		movs	r0, #0
 335 01d2 FFF7FEFF 		bl	vexAdcGet
 336              	.LVL40:
 337 01d6 0290     		str	r0, [sp, #8]
 338              	.LVL41:
 339              		.loc 1 197 0
ARM GAS  C:\Users\Jeff\AppData\Local\Temp\ccSKufFw.s 			page 7


 340 01d8 0120     		movs	r0, #1
 341 01da FFF7FEFF 		bl	vexAdcGet
 342              	.LVL42:
 343 01de 8346     		mov	fp, r0
 344              	.LVL43:
 345              		.loc 1 198 0
 346 01e0 0220     		movs	r0, #2
 347              	.LVL44:
 348 01e2 FFF7FEFF 		bl	vexAdcGet
 349              	.LVL45:
 350 01e6 0390     		str	r0, [sp, #12]
 351              	.LVL46:
 352              		.loc 1 199 0
 353 01e8 0320     		movs	r0, #3
 354 01ea FFF7FEFF 		bl	vexAdcGet
 355              	.LVL47:
 356 01ee 8046     		mov	r8, r0
 357              	.LVL48:
 358              		.loc 1 200 0
 359 01f0 0420     		movs	r0, #4
 360              	.LVL49:
 361 01f2 FFF7FEFF 		bl	vexAdcGet
 362              	.LVL50:
 363 01f6 0490     		str	r0, [sp, #16]
 364              	.LVL51:
 365              		.loc 1 201 0
 366 01f8 0520     		movs	r0, #5
 367 01fa FFF7FEFF 		bl	vexAdcGet
 368              	.LVL52:
 369 01fe 0090     		str	r0, [sp, #0]
 370              	.LVL53:
 371              		.loc 1 202 0
 372 0200 0620     		movs	r0, #6
 373 0202 FFF7FEFF 		bl	vexAdcGet
 374              	.LVL54:
 375 0206 0590     		str	r0, [sp, #20]
 376              	.LVL55:
 377              		.loc 1 203 0
 378 0208 0720     		movs	r0, #7
 379 020a FFF7FEFF 		bl	vexAdcGet
 380              	.LVL56:
 381 020e 0190     		str	r0, [sp, #4]
 382              	.LVL57:
 383              		.loc 1 206 0
 384 0210 0A20     		movs	r0, #10
 385 0212 FFF7FEFF 		bl	vexDigitalPinGet
 386              	.LVL58:
 387 0216 0128     		cmp	r0, #1
 388 0218 4DD0     		beq	.L36
 389              	.L4:
 390              		.loc 1 218 0
 391 021a 0A20     		movs	r0, #10
 392 021c FFF7FEFF 		bl	vexDigitalPinGet
 393              	.LVL59:
 394 0220 30B9     		cbnz	r0, .L6
 395              		.loc 1 218 0 is_stmt 0 discriminator 1
 396 0222 0B20     		movs	r0, #11
ARM GAS  C:\Users\Jeff\AppData\Local\Temp\ccSKufFw.s 			page 8


 397 0224 FFF7FEFF 		bl	vexDigitalPinGet
 398              	.LVL60:
 399 0228 0128     		cmp	r0, #1
 400 022a 0446     		mov	r4, r0
 401 022c 00F00A81 		beq	.L37
 402              	.L6:
 403              		.loc 1 230 0 is_stmt 1
 404 0230 0A20     		movs	r0, #10
 405 0232 FFF7FEFF 		bl	vexDigitalPinGet
 406              	.LVL61:
 407 0236 0128     		cmp	r0, #1
 408 0238 0446     		mov	r4, r0
 409 023a 00F08380 		beq	.L38
 410              	.L7:
 411              		.loc 1 242 0
 412 023e 0A20     		movs	r0, #10
 413 0240 FFF7FEFF 		bl	vexDigitalPinGet
 414              	.LVL62:
 415 0244 0028     		cmp	r0, #0
 416 0246 00F0BC80 		beq	.L39
 417              	.L5:
 418              	.LVL63:
 419              		.loc 1 254 0
 420 024a 069A     		ldr	r2, [sp, #24]
 421 024c 0020     		movs	r0, #0
 422 024e 17B2     		sxth	r7, r2
 423 0250 3946     		mov	r1, r7
 424 0252 FFF7FEFF 		bl	vexMotorSet
 425              	.LVL64:
 426              		.loc 1 255 0
 427 0256 0120     		movs	r0, #1
 428 0258 3946     		mov	r1, r7
 429 025a FFF7FEFF 		bl	vexMotorSet
 430              	.LVL65:
 431              		.loc 1 259 0
 432 025e 079B     		ldr	r3, [sp, #28]
 433              		.loc 1 256 0
 434 0260 0220     		movs	r0, #2
 435              		.loc 1 259 0
 436 0262 1CB2     		sxth	r4, r3
 437              		.loc 1 256 0
 438 0264 3946     		mov	r1, r7
 439 0266 FFF7FEFF 		bl	vexMotorSet
 440              	.LVL66:
 441              		.loc 1 259 0
 442 026a 0320     		movs	r0, #3
 443 026c 2146     		mov	r1, r4
 444 026e FFF7FEFF 		bl	vexMotorSet
 445              	.LVL67:
 446              		.loc 1 260 0
 447 0272 0420     		movs	r0, #4
 448 0274 2146     		mov	r1, r4
 449 0276 FFF7FEFF 		bl	vexMotorSet
 450              	.LVL68:
 451              		.loc 1 261 0
 452 027a 0920     		movs	r0, #9
 453 027c 2146     		mov	r1, r4
ARM GAS  C:\Users\Jeff\AppData\Local\Temp\ccSKufFw.s 			page 9


 454 027e FFF7FEFF 		bl	vexMotorSet
 455              	.LVL69:
 456              		.loc 1 264 0
 457 0282 31B2     		sxth	r1, r6
 458 0284 0029     		cmp	r1, #0
 459 0286 D4BF     		ite	le
 460 0288 0023     		movle	r3, #0
 461 028a 0123     		movgt	r3, #1
 462 028c BBF1C70F 		cmp	fp, #199
 463 0290 C8BF     		it	gt
 464 0292 0023     		movgt	r3, #0
 465 0294 002B     		cmp	r3, #0
 466 0296 3FF4C9AE 		beq	.L40
 467              		.loc 1 265 0
 468 029a 0026     		movs	r6, #0
 469              	.LVL70:
 470 029c 3146     		mov	r1, r6
 471 029e CFE6     		b	.L8
 472              	.LVL71:
 473              	.L17:
 474              		.loc 1 274 0
 475 02a0 0025     		movs	r5, #0
 476              	.LVL72:
 477 02a2 2C46     		mov	r4, r5
 478 02a4 12E7     		b	.L11
 479              	.LVL73:
 480              	.L16:
 481              		.loc 1 271 0
 482 02a6 4FF0000A 		mov	sl, #0
 483              	.LVL74:
 484 02aa D046     		mov	r8, sl
 485 02ac F8E6     		b	.L10
 486              	.LVL75:
 487              	.L15:
 488              		.loc 1 268 0
 489 02ae 4FF00009 		mov	r9, #0
 490              	.LVL76:
 491 02b2 CB46     		mov	fp, r9
 492 02b4 DCE6     		b	.L9
 493              	.LVL77:
 494              	.L36:
 495              		.loc 1 206 0 discriminator 1
 496 02b6 0B20     		movs	r0, #11
 497 02b8 FFF7FEFF 		bl	vexDigitalPinGet
 498              	.LVL78:
 499 02bc 0128     		cmp	r0, #1
 500 02be 0446     		mov	r4, r0
 501 02c0 ABD1     		bne	.L4
 502              		.loc 1 208 0
 503 02c2 0220     		movs	r0, #2
 504 02c4 FFF7FEFF 		bl	vexControllerGet
 505              	.LVL79:
 506 02c8 0690     		str	r0, [sp, #24]
 507              	.LVL80:
 508              		.loc 1 209 0
 509 02ca 2046     		mov	r0, r4
 510 02cc FFF7FEFF 		bl	vexControllerGet
ARM GAS  C:\Users\Jeff\AppData\Local\Temp\ccSKufFw.s 			page 10


 511              	.LVL81:
 512 02d0 4342     		negs	r3, r0
 513 02d2 9BB2     		uxth	r3, r3
 514              		.loc 1 211 0
 515 02d4 0D20     		movs	r0, #13
 516              		.loc 1 209 0
 517 02d6 0793     		str	r3, [sp, #28]
 518              	.LVL82:
 519              		.loc 1 211 0
 520 02d8 FFF7FEFF 		bl	vexControllerGet
 521              	.LVL83:
 522 02dc 0646     		mov	r6, r0
 523 02de 0C20     		movs	r0, #12
 524 02e0 FFF7FEFF 		bl	vexControllerGet
 525              	.LVL84:
 526 02e4 C6EBC616 		rsb	r6, r6, r6, lsl #7
 527 02e8 A0EBC010 		sub	r0, r0, r0, lsl #7
 528 02ec 8619     		adds	r6, r0, r6
 529              		.loc 1 212 0
 530 02ee 0F20     		movs	r0, #15
 531 02f0 FFF7FEFF 		bl	vexControllerGet
 532              	.LVL85:
 533 02f4 8146     		mov	r9, r0
 534 02f6 0E20     		movs	r0, #14
 535 02f8 FFF7FEFF 		bl	vexControllerGet
 536              	.LVL86:
 537 02fc C9EBC919 		rsb	r9, r9, r9, lsl #7
 538 0300 A0EBC010 		sub	r0, r0, r0, lsl #7
 539 0304 8144     		add	r9, r0, r9
 540              		.loc 1 213 0
 541 0306 0A20     		movs	r0, #10
 542 0308 FFF7FEFF 		bl	vexControllerGet
 543              	.LVL87:
 544 030c 8246     		mov	sl, r0
 545 030e 0820     		movs	r0, #8
 546 0310 FFF7FEFF 		bl	vexControllerGet
 547              	.LVL88:
 548 0314 CAEBCA1A 		rsb	sl, sl, sl, lsl #7
 549 0318 A0EBC010 		sub	r0, r0, r0, lsl #7
 550 031c 8244     		add	sl, r0, sl
 551              		.loc 1 214 0
 552 031e 0620     		movs	r0, #6
 553 0320 FFF7FEFF 		bl	vexControllerGet
 554              	.LVL89:
 555 0324 0546     		mov	r5, r0
 556 0326 0420     		movs	r0, #4
 557 0328 FFF7FEFF 		bl	vexControllerGet
 558              	.LVL90:
 559 032c C5EBC515 		rsb	r5, r5, r5, lsl #7
 560 0330 A0EBC010 		sub	r0, r0, r0, lsl #7
 561 0334 4519     		adds	r5, r0, r5
 562              		.loc 1 211 0
 563 0336 B6B2     		uxth	r6, r6
 564              	.LVL91:
 565              		.loc 1 212 0
 566 0338 1FFA89F9 		uxth	r9, r9
 567              	.LVL92:
ARM GAS  C:\Users\Jeff\AppData\Local\Temp\ccSKufFw.s 			page 11


 568              		.loc 1 213 0
 569 033c 1FFA8AFA 		uxth	sl, sl
 570              	.LVL93:
 571              		.loc 1 214 0
 572 0340 ADB2     		uxth	r5, r5
 573              	.LVL94:
 574 0342 82E7     		b	.L5
 575              	.LVL95:
 576              	.L38:
 577              		.loc 1 230 0 discriminator 1
 578 0344 0B20     		movs	r0, #11
 579 0346 FFF7FEFF 		bl	vexDigitalPinGet
 580              	.LVL96:
 581 034a 0746     		mov	r7, r0
 582 034c 0028     		cmp	r0, #0
 583 034e 7FF476AF 		bne	.L7
 584              		.loc 1 232 0
 585 0352 FFF7FEFF 		bl	vexControllerGet
 586              	.LVL97:
 587 0356 0546     		mov	r5, r0
 588 0358 2046     		mov	r0, r4
 589 035a FFF7FEFF 		bl	vexControllerGet
 590              	.LVL98:
 591 035e 4519     		adds	r5, r0, r5
 592 0360 ADB2     		uxth	r5, r5
 593              		.loc 1 233 0
 594 0362 3846     		mov	r0, r7
 595              		.loc 1 232 0
 596 0364 0695     		str	r5, [sp, #24]
 597              	.LVL99:
 598              		.loc 1 233 0
 599 0366 FFF7FEFF 		bl	vexControllerGet
 600              	.LVL100:
 601 036a 0546     		mov	r5, r0
 602 036c 2046     		mov	r0, r4
 603 036e FFF7FEFF 		bl	vexControllerGet
 604              	.LVL101:
 605 0372 2D1A     		subs	r5, r5, r0
 606 0374 ADB2     		uxth	r5, r5
 607              		.loc 1 235 0
 608 0376 0D20     		movs	r0, #13
 609              		.loc 1 233 0
 610 0378 0795     		str	r5, [sp, #28]
 611              	.LVL102:
 612              		.loc 1 235 0
 613 037a FFF7FEFF 		bl	vexControllerGet
 614              	.LVL103:
 615 037e 0646     		mov	r6, r0
 616 0380 0C20     		movs	r0, #12
 617 0382 FFF7FEFF 		bl	vexControllerGet
 618              	.LVL104:
 619 0386 C6EBC616 		rsb	r6, r6, r6, lsl #7
 620 038a A0EBC010 		sub	r0, r0, r0, lsl #7
 621 038e 8619     		adds	r6, r0, r6
 622              		.loc 1 236 0
 623 0390 0F20     		movs	r0, #15
 624 0392 FFF7FEFF 		bl	vexControllerGet
ARM GAS  C:\Users\Jeff\AppData\Local\Temp\ccSKufFw.s 			page 12


 625              	.LVL105:
 626 0396 8146     		mov	r9, r0
 627 0398 0E20     		movs	r0, #14
 628 039a FFF7FEFF 		bl	vexControllerGet
 629              	.LVL106:
 630 039e C9EBC919 		rsb	r9, r9, r9, lsl #7
 631 03a2 A0EBC010 		sub	r0, r0, r0, lsl #7
 632 03a6 8144     		add	r9, r0, r9
 633              		.loc 1 237 0
 634 03a8 0220     		movs	r0, #2
 635 03aa FFF7FEFF 		bl	vexControllerGet
 636              	.LVL107:
 637 03ae 8246     		mov	sl, r0
 638              		.loc 1 238 0
 639 03b0 0320     		movs	r0, #3
 640 03b2 FFF7FEFF 		bl	vexControllerGet
 641              	.LVL108:
 642 03b6 4042     		negs	r0, r0
 643              		.loc 1 235 0
 644 03b8 B6B2     		uxth	r6, r6
 645              	.LVL109:
 646              		.loc 1 236 0
 647 03ba 1FFA89F9 		uxth	r9, r9
 648              	.LVL110:
 649              		.loc 1 238 0
 650 03be 85B2     		uxth	r5, r0
 651              	.LVL111:
 652 03c0 43E7     		b	.L5
 653              	.LVL112:
 654              	.L39:
 655              		.loc 1 242 0 discriminator 1
 656 03c2 0B20     		movs	r0, #11
 657 03c4 FFF7FEFF 		bl	vexDigitalPinGet
 658              	.LVL113:
 659 03c8 0446     		mov	r4, r0
 660 03ca 0028     		cmp	r0, #0
 661 03cc 7FF43DAF 		bne	.L5
 662              		.loc 1 244 0
 663 03d0 FFF7FEFF 		bl	vexControllerGet
 664              	.LVL114:
 665 03d4 0546     		mov	r5, r0
 666 03d6 0120     		movs	r0, #1
 667 03d8 FFF7FEFF 		bl	vexControllerGet
 668              	.LVL115:
 669 03dc 4519     		adds	r5, r0, r5
 670 03de ADB2     		uxth	r5, r5
 671              		.loc 1 245 0
 672 03e0 2046     		mov	r0, r4
 673              		.loc 1 244 0
 674 03e2 0695     		str	r5, [sp, #24]
 675              	.LVL116:
 676              		.loc 1 245 0
 677 03e4 FFF7FEFF 		bl	vexControllerGet
 678              	.LVL117:
 679 03e8 0446     		mov	r4, r0
 680 03ea 0120     		movs	r0, #1
 681 03ec FFF7FEFF 		bl	vexControllerGet
ARM GAS  C:\Users\Jeff\AppData\Local\Temp\ccSKufFw.s 			page 13


 682              	.LVL118:
 683 03f0 241A     		subs	r4, r4, r0
 684 03f2 A4B2     		uxth	r4, r4
 685              		.loc 1 247 0
 686 03f4 8D20     		movs	r0, #141
 687              		.loc 1 245 0
 688 03f6 0794     		str	r4, [sp, #28]
 689              	.L34:
 690              	.LVL119:
 691              		.loc 1 247 0
 692 03f8 FFF7FEFF 		bl	vexControllerGet
 693              	.LVL120:
 694 03fc 0646     		mov	r6, r0
 695 03fe 8C20     		movs	r0, #140
 696 0400 FFF7FEFF 		bl	vexControllerGet
 697              	.LVL121:
 698 0404 C6EBC616 		rsb	r6, r6, r6, lsl #7
 699 0408 A0EBC010 		sub	r0, r0, r0, lsl #7
 700 040c 8619     		adds	r6, r0, r6
 701              		.loc 1 248 0
 702 040e 8F20     		movs	r0, #143
 703 0410 FFF7FEFF 		bl	vexControllerGet
 704              	.LVL122:
 705 0414 8146     		mov	r9, r0
 706 0416 8E20     		movs	r0, #142
 707 0418 FFF7FEFF 		bl	vexControllerGet
 708              	.LVL123:
 709 041c C9EBC919 		rsb	r9, r9, r9, lsl #7
 710 0420 A0EBC010 		sub	r0, r0, r0, lsl #7
 711 0424 8144     		add	r9, r0, r9
 712              		.loc 1 249 0
 713 0426 8220     		movs	r0, #130
 714 0428 FFF7FEFF 		bl	vexControllerGet
 715              	.LVL124:
 716 042c 8246     		mov	sl, r0
 717              		.loc 1 250 0
 718 042e 8120     		movs	r0, #129
 719 0430 FFF7FEFF 		bl	vexControllerGet
 720              	.LVL125:
 721              		.loc 1 247 0
 722 0434 B6B2     		uxth	r6, r6
 723              	.LVL126:
 724              		.loc 1 248 0
 725 0436 1FFA89F9 		uxth	r9, r9
 726              	.LVL127:
 727              		.loc 1 250 0
 728 043a 0546     		mov	r5, r0
 729              	.LVL128:
 730 043c 05E7     		b	.L5
 731              	.LVL129:
 732              	.L2:
 733              		.loc 1 285 0
 734 043e 09B0     		add	sp, sp, #36
 735 0440 BDE8F08F 		pop	{r4, r5, r6, r7, r8, r9, sl, fp, pc}
 736              	.LVL130:
 737              	.L37:
 738              		.loc 1 220 0
ARM GAS  C:\Users\Jeff\AppData\Local\Temp\ccSKufFw.s 			page 14


 739 0444 0220     		movs	r0, #2
 740 0446 FFF7FEFF 		bl	vexControllerGet
 741              	.LVL131:
 742 044a 0690     		str	r0, [sp, #24]
 743              	.LVL132:
 744              		.loc 1 221 0
 745 044c 2046     		mov	r0, r4
 746 044e FFF7FEFF 		bl	vexControllerGet
 747              	.LVL133:
 748 0452 4342     		negs	r3, r0
 749 0454 9BB2     		uxth	r3, r3
 750              		.loc 1 223 0
 751 0456 8D20     		movs	r0, #141
 752              		.loc 1 221 0
 753 0458 0793     		str	r3, [sp, #28]
 754              	.LVL134:
 755 045a CDE7     		b	.L34
 756              		.cfi_endproc
 757              	.LFE64:
 758              		.size	vexCortexDefaultDriver, .-vexCortexDefaultDriver
 759 045c AFF30080 		.section	.data.mConfig,"aw",%progbits
 760              		.align	2
 761              		.set	.LANCHOR1,. + 0
 762              		.type	mConfig, %object
 763              		.size	mConfig, 60
 764              	mConfig:
 765 0000 00       		.byte	0
 766 0001 02       		.byte	2
 767 0002 00       		.byte	0
 768 0003 00       		.byte	0
 769 0004 0000     		.short	0
 770 0006 01       		.byte	1
 771 0007 02       		.byte	2
 772 0008 00       		.byte	0
 773 0009 00       		.byte	0
 774 000a 0000     		.short	0
 775 000c 02       		.byte	2
 776 000d 02       		.byte	2
 777 000e 00       		.byte	0
 778 000f 00       		.byte	0
 779 0010 0000     		.short	0
 780 0012 03       		.byte	3
 781 0013 02       		.byte	2
 782 0014 00       		.byte	0
 783 0015 00       		.byte	0
 784 0016 0000     		.short	0
 785 0018 04       		.byte	4
 786 0019 02       		.byte	2
 787 001a 00       		.byte	0
 788 001b 00       		.byte	0
 789 001c 0000     		.short	0
 790 001e 05       		.byte	5
 791 001f 02       		.byte	2
 792 0020 00       		.byte	0
 793 0021 00       		.byte	0
 794 0022 0000     		.short	0
 795 0024 06       		.byte	6
ARM GAS  C:\Users\Jeff\AppData\Local\Temp\ccSKufFw.s 			page 15


 796 0025 02       		.byte	2
 797 0026 00       		.byte	0
 798 0027 00       		.byte	0
 799 0028 0000     		.short	0
 800 002a 07       		.byte	7
 801 002b 02       		.byte	2
 802 002c 00       		.byte	0
 803 002d 00       		.byte	0
 804 002e 0000     		.short	0
 805 0030 08       		.byte	8
 806 0031 02       		.byte	2
 807 0032 00       		.byte	0
 808 0033 00       		.byte	0
 809 0034 0000     		.short	0
 810 0036 09       		.byte	9
 811 0037 02       		.byte	2
 812 0038 00       		.byte	0
 813 0039 00       		.byte	0
 814 003a 0000     		.short	0
 815              		.section	.data.dConfig,"aw",%progbits
 816              		.align	2
 817              		.set	.LANCHOR0,. + 0
 818              		.type	dConfig, %object
 819              		.size	dConfig, 72
 820              	dConfig:
 821 0000 00       		.byte	0
 822 0001 01       		.byte	1
 823 0002 00       		.byte	0
 824 0003 00       		.space	1
 825 0004 0000     		.short	0
 826 0006 01       		.byte	1
 827 0007 01       		.byte	1
 828 0008 00       		.byte	0
 829 0009 00       		.space	1
 830 000a 0000     		.short	0
 831 000c 02       		.byte	2
 832 000d 01       		.byte	1
 833 000e 00       		.byte	0
 834 000f 00       		.space	1
 835 0010 0000     		.short	0
 836 0012 03       		.byte	3
 837 0013 01       		.byte	1
 838 0014 00       		.byte	0
 839 0015 00       		.space	1
 840 0016 0000     		.short	0
 841 0018 04       		.byte	4
 842 0019 01       		.byte	1
 843 001a 00       		.byte	0
 844 001b 00       		.space	1
 845 001c 0000     		.short	0
 846 001e 05       		.byte	5
 847 001f 01       		.byte	1
 848 0020 00       		.byte	0
 849 0021 00       		.space	1
 850 0022 0000     		.short	0
 851 0024 06       		.byte	6
 852 0025 01       		.byte	1
ARM GAS  C:\Users\Jeff\AppData\Local\Temp\ccSKufFw.s 			page 16


 853 0026 00       		.byte	0
 854 0027 00       		.space	1
 855 0028 0000     		.short	0
 856 002a 07       		.byte	7
 857 002b 01       		.byte	1
 858 002c 00       		.byte	0
 859 002d 00       		.space	1
 860 002e 0000     		.short	0
 861 0030 08       		.byte	8
 862 0031 01       		.byte	1
 863 0032 00       		.byte	0
 864 0033 00       		.space	1
 865 0034 0000     		.short	0
 866 0036 09       		.byte	9
 867 0037 01       		.byte	1
 868 0038 00       		.byte	0
 869 0039 00       		.space	1
 870 003a 0000     		.short	0
 871 003c 0A       		.byte	10
 872 003d 01       		.byte	1
 873 003e 00       		.byte	0
 874 003f 00       		.space	1
 875 0040 0000     		.short	0
 876 0042 0B       		.byte	11
 877 0043 01       		.byte	1
 878 0044 00       		.byte	0
 879 0045 00       		.space	1
 880 0046 0000     		.short	0
 881              		.text
 882              	.Letext0:
 883              		.file 2 "c:/yagarto-20121222/lib/gcc/../../arm-none-eabi/sys-include/stdint.h"
 884              		.file 3 "../../../../ChibiOS_2.6.2/os/ports/GCC/ARMCMx/chtypes.h"
 885              		.file 4 "../../../../ChibiOS_2.6.2/os/kernel/include/chlists.h"
 886              		.file 5 "../../../../ChibiOS_2.6.2/os/kernel/include/chthreads.h"
 887              		.file 6 "../../../../ChibiOS_2.6.2/os/ports/GCC/ARMCMx/chcore_v7m.h"
 888              		.file 7 "../../../../ChibiOS_2.6.2/os/kernel/include/chschd.h"
 889              		.file 8 "../../../../ChibiOS_2.6.2/os/kernel/include/chmtx.h"
 890              		.file 9 "../../fw/vexanalog.h"
 891              		.file 10 "../../fw/vexdigital.h"
 892              		.file 11 "../../fw/vexmotor.h"
 893              		.file 12 "../../fw/vexime.h"
 894              		.file 13 "../../fw/vexconfig.h"
 895              		.file 14 "../../fw/vexctl.h"
 896              		.file 15 "../../../../ChibiOS_2.6.2/os/ports/common/ARMCMx/CMSIS/include/core_cm3.h"
 897              		.file 16 "../../fw/vex.h"