ARM GAS  C:\Users\Jeff\AppData\Local\Temp\ccgnYnPd.s 			page 1


   1              		.syntax unified
   2              		.cpu cortex-m3
   3              		.fpu softvfp
   4              		.eabi_attribute 20, 1
   5              		.eabi_attribute 21, 1
   6              		.eabi_attribute 23, 3
   7              		.eabi_attribute 24, 1
   8              		.eabi_attribute 25, 1
   9              		.eabi_attribute 26, 1
  10              		.eabi_attribute 30, 2
  11              		.eabi_attribute 34, 1
  12              		.eabi_attribute 18, 4
  13              		.thumb
  14              		.file	"vexuser.c"
  15              		.text
  16              	.Ltext0:
  17              		.cfi_sections	.debug_frame
  18              		.section	.text.vexUserSetup,"ax",%progbits
  19              		.align	2
  20              		.p2align 4,,15
  21              		.weak	vexUserSetup
  22              		.thumb
  23              		.thumb_func
  24              		.type	vexUserSetup, %function
  25              	vexUserSetup:
  26              	.LFB63:
  27              		.file 1 "vexuser.c"
  28              		.loc 1 56 0
  29              		.cfi_startproc
  30              		@ args = 0, pretend = 0, frame = 0
  31              		@ frame_needed = 0, uses_anonymous_args = 0
  32              		@ link register save eliminated.
  33              		.loc 1 58 0
  34              		.loc 1 57 0
  35 0000 FFF7FEBF 		b	vexCortexDefaultSetup
  36              	.LVL0:
  37              		.cfi_endproc
  38              	.LFE63:
  39              		.size	vexUserSetup, .-vexUserSetup
  40 0004 AFF30080 		.section	.text.vexUserInit,"ax",%progbits
  40      AFF30080 
  40      AFF30080 
  41              		.align	2
  42              		.p2align 4,,15
  43              		.weak	vexUserInit
  44              		.thumb
  45              		.thumb_func
  46              		.type	vexUserInit, %function
  47              	vexUserInit:
  48              	.LFB64:
  49              		.loc 1 63 0
  50              		.cfi_startproc
  51              		@ args = 0, pretend = 0, frame = 0
  52              		@ frame_needed = 0, uses_anonymous_args = 0
  53              		@ link register save eliminated.
  54 0000 7047     		bx	lr
  55              		.cfi_endproc
ARM GAS  C:\Users\Jeff\AppData\Local\Temp\ccgnYnPd.s 			page 2


  56              	.LFE64:
  57              		.size	vexUserInit, .-vexUserInit
  58 0002 00BFAFF3 		.section	.text.vexAutonomous,"ax",%progbits
  58      0080AFF3 
  58      0080AFF3 
  58      0080
  59              		.align	2
  60              		.p2align 4,,15
  61              		.global	vexAutonomous
  62              		.thumb
  63              		.thumb_func
  64              		.type	vexAutonomous, %function
  65              	vexAutonomous:
  66              	.LFB65:
  67              		.loc 1 69 0
  68              		.cfi_startproc
  69              		@ Volatile: function does not return.
  70              		@ args = 0, pretend = 0, frame = 0
  71              		@ frame_needed = 0, uses_anonymous_args = 0
  72              	.LVL1:
  73              		.loc 1 69 0
  74 0000 08B5     		push	{r3, lr}
  75              	.LCFI0:
  76              		.cfi_def_cfa_offset 8
  77              		.cfi_offset 3, -8
  78              		.cfi_offset 14, -4
  79              		.loc 1 73 0
  80 0002 0348     		ldr	r0, .L6
  81              	.LVL2:
  82 0004 FFF7FEFF 		bl	vexTaskRegister
  83              	.LVL3:
  84              	.L4:
  85              		.loc 1 78 0 discriminator 1
  86 0008 1920     		movs	r0, #25
  87 000a FFF7FEFF 		bl	vexSleep
  88              	.LVL4:
  89 000e FBE7     		b	.L4
  90              	.L7:
  91              		.align	2
  92              	.L6:
  93 0010 00000000 		.word	.LC0
  94              		.cfi_endproc
  95              	.LFE65:
  96              		.size	vexAutonomous, .-vexAutonomous
  97 0014 AFF30080 		.section	.text.vexOperator,"ax",%progbits
  97      AFF30080 
  97      AFF30080 
  98              		.align	2
  99              		.p2align 4,,15
 100              		.global	vexOperator
 101              		.thumb
 102              		.thumb_func
 103              		.type	vexOperator, %function
 104              	vexOperator:
 105              	.LFB66:
 106              		.loc 1 88 0
 107              		.cfi_startproc
ARM GAS  C:\Users\Jeff\AppData\Local\Temp\ccgnYnPd.s 			page 3


 108              		@ args = 0, pretend = 0, frame = 0
 109              		@ frame_needed = 0, uses_anonymous_args = 0
 110              	.LVL5:
 111              		.loc 1 92 0
 112 0000 40F20000 		movw	r0, #:lower16:.LC1
 113              	.LVL6:
 114              		.loc 1 88 0
 115 0004 08B5     		push	{r3, lr}
 116              	.LCFI1:
 117              		.cfi_def_cfa_offset 8
 118              		.cfi_offset 3, -8
 119              		.cfi_offset 14, -4
 120              		.loc 1 92 0
 121 0006 C0F20000 		movt	r0, #:upper16:.LC1
 122 000a FFF7FEFF 		bl	vexTaskRegister
 123              	.LVL7:
 124              		.loc 1 95 0
 125 000e FFF7FEFF 		bl	vexCortexDefaultDriver
 126              	.LVL8:
 127              		.loc 1 98 0
 128 0012 0020     		movs	r0, #0
 129 0014 08BD     		pop	{r3, pc}
 130              		.cfi_endproc
 131              	.LFE66:
 132              		.size	vexOperator, .-vexOperator
 133 0016 00BFAFF3 		.section	.rodata.str1.4,"aMS",%progbits,1
 133      0080AFF3 
 133      0080
 134              		.align	2
 135              	.LC0:
 136 0000 6175746F 		.ascii	"auton\000"
 136      6E00
 137 0006 0000     		.space	2
 138              	.LC1:
 139 0008 6F706572 		.ascii	"operator\000"
 139      61746F72 
 139      00
 140 0011 000000   		.text
 141              	.Letext0:
 142              		.file 2 "c:/yagarto-20121222/lib/gcc/../../arm-none-eabi/sys-include/stdint.h"
 143              		.file 3 "../../../../ChibiOS_2.6.2/os/ports/GCC/ARMCMx/chtypes.h"
 144              		.file 4 "../../fw/vex.h"
 145              		.file 5 "../../../../ChibiOS_2.6.2/os/ports/common/ARMCMx/CMSIS/include/core_cm3.h"